target datalayout = "e-m:e-p270:32:32-p271:32:32-p272:64:64-i64:64-i128:128-f80:128-n8:16:32:64-S128"
target triple = "x86_64-pc-linux-gnu"

%"class.mu::ParserCallback" = type <{ ptr, i32, i32, i32, i32, i32, i8, [3 x i8] }>

; Function Attrs: mustprogress nounwind uwtable
define void @_ZN2mu14ParserCallbackD2Ev(ptr noundef nonnull align 8 dereferenceable(32) %0) unnamed_addr #5 align 2 {
  %2 = alloca ptr, align 8
  store ptr %0, ptr %2, align 8, !tbaa !32
  %3 = load ptr, ptr %2, align 8
  %4 = getelementptr inbounds nuw %"class.mu::ParserCallback", ptr %3, i32 0, i32 1
  %5 = load i32, ptr %4, align 8, !tbaa !43
  %6 = and i32 %5, 8192
  %7 = icmp ne i32 %6, 0
  br i1 %7, label %8, label %14

8:                                                ; preds = %1
  %9 = getelementptr inbounds nuw %"class.mu::ParserCallback", ptr %3, i32 0, i32 0
  %10 = load ptr, ptr %9, align 8, !tbaa !37
  %11 = icmp eq ptr %10, null
  br i1 %11, label %13, label %12

12:                                               ; preds = %8
  call void @_ZdlPv(ptr noundef %10) #17
  br label %13

13:                                               ; preds = %12, %8
  br label %14

14:                                               ; preds = %13, %1
  ret void
}

; Function Attrs: mustprogress uwtable
define void @_ZN2mu14ParserCallback6AssignERKS0_(ptr noundef nonnull align 8 dereferenceable(32) %0, ptr noundef nonnull align 8 dereferenceable(32) %1) #6 align 2 {
  %3 = alloca ptr, align 8
  %4 = alloca ptr, align 8
  store ptr %0, ptr %3, align 8, !tbaa !32
  store ptr %1, ptr %4, align 8, !tbaa !32
  %5 = load ptr, ptr %3, align 8
  %6 = load ptr, ptr %4, align 8, !tbaa !32
  %7 = icmp eq ptr %5, %6
  br i1 %7, label %8, label %9

8:                                                ; preds = %2
  br label %65

9:                                                ; preds = %2
  %10 = getelementptr inbounds nuw %"class.mu::ParserCallback", ptr %5, i32 0, i32 1
  %11 = load i32, ptr %10, align 8, !tbaa !43
  %12 = and i32 %11, 8192
  %13 = icmp ne i32 %12, 0
  br i1 %13, label %14, label %21

14:                                               ; preds = %9
  %15 = getelementptr inbounds nuw %"class.mu::ParserCallback", ptr %5, i32 0, i32 0
  %16 = load ptr, ptr %15, align 8, !tbaa !37
  %17 = icmp eq ptr %16, null
  br i1 %17, label %19, label %18

18:                                               ; preds = %14
  call void @_ZdlPv(ptr noundef %16) #17
  br label %19

19:                                               ; preds = %18, %14
  %20 = getelementptr inbounds nuw %"class.mu::ParserCallback", ptr %5, i32 0, i32 0
  store ptr null, ptr %20, align 8, !tbaa !37
  br label %21

21:                                               ; preds = %19, %9
  %22 = load ptr, ptr %4, align 8, !tbaa !32
  %23 = getelementptr inbounds nuw %"class.mu::ParserCallback", ptr %22, i32 0, i32 1
  %24 = load i32, ptr %23, align 8, !tbaa !43
  %25 = and i32 %24, 8192
  %26 = icmp ne i32 %25, 0
  br i1 %26, label %27, label %33

27:                                               ; preds = %21
  %28 = call noalias noundef nonnull ptr @_Znwm(i64 noundef 16) #18
  %29 = load ptr, ptr %4, align 8, !tbaa !32
  %30 = getelementptr inbounds nuw %"class.mu::ParserCallback", ptr %29, i32 0, i32 0
  %31 = load ptr, ptr %30, align 8, !tbaa !37
  call void @llvm.memcpy.p0.p0.i64(ptr align 16 %28, ptr align 8 %31, i64 16, i1 false), !tbaa.struct !57
  %32 = getelementptr inbounds nuw %"class.mu::ParserCallback", ptr %5, i32 0, i32 0
  store ptr %28, ptr %32, align 8, !tbaa !37
  br label %38

33:                                               ; preds = %21
  %34 = load ptr, ptr %4, align 8, !tbaa !32
  %35 = getelementptr inbounds nuw %"class.mu::ParserCallback", ptr %34, i32 0, i32 0
  %36 = load ptr, ptr %35, align 8, !tbaa !37
  %37 = getelementptr inbounds nuw %"class.mu::ParserCallback", ptr %5, i32 0, i32 0
  store ptr %36, ptr %37, align 8, !tbaa !37
  br label %38

38:                                               ; preds = %33, %27
  %39 = load ptr, ptr %4, align 8, !tbaa !32
  %40 = getelementptr inbounds nuw %"class.mu::ParserCallback", ptr %39, i32 0, i32 1
  %41 = load i32, ptr %40, align 8, !tbaa !43
  %42 = getelementptr inbounds nuw %"class.mu::ParserCallback", ptr %5, i32 0, i32 1
  store i32 %41, ptr %42, align 8, !tbaa !43
  %43 = load ptr, ptr %4, align 8, !tbaa !32
  %44 = getelementptr inbounds nuw %"class.mu::ParserCallback", ptr %43, i32 0, i32 6
  %45 = load i8, ptr %44, align 4, !tbaa !50, !range !48, !noundef !49
  %46 = trunc i8 %45 to i1
  %47 = getelementptr inbounds nuw %"class.mu::ParserCallback", ptr %5, i32 0, i32 6
  %48 = zext i1 %46 to i8
  store i8 %48, ptr %47, align 4, !tbaa !50
  %49 = load ptr, ptr %4, align 8, !tbaa !32
  %50 = getelementptr inbounds nuw %"class.mu::ParserCallback", ptr %49, i32 0, i32 4
  %51 = load i32, ptr %50, align 4, !tbaa !46
  %52 = getelementptr inbounds nuw %"class.mu::ParserCallback", ptr %5, i32 0, i32 4
  store i32 %51, ptr %52, align 4, !tbaa !46
  %53 = load ptr, ptr %4, align 8, !tbaa !32
  %54 = getelementptr inbounds nuw %"class.mu::ParserCallback", ptr %53, i32 0, i32 5
  %55 = load i32, ptr %54, align 8, !tbaa !47
  %56 = getelementptr inbounds nuw %"class.mu::ParserCallback", ptr %5, i32 0, i32 5
  store i32 %55, ptr %56, align 8, !tbaa !47
  %57 = load ptr, ptr %4, align 8, !tbaa !32
  %58 = getelementptr inbounds nuw %"class.mu::ParserCallback", ptr %57, i32 0, i32 2
  %59 = load i32, ptr %58, align 4, !tbaa !44
  %60 = getelementptr inbounds nuw %"class.mu::ParserCallback", ptr %5, i32 0, i32 2
  store i32 %59, ptr %60, align 4, !tbaa !44
  %61 = load ptr, ptr %4, align 8, !tbaa !32
  %62 = getelementptr inbounds nuw %"class.mu::ParserCallback", ptr %61, i32 0, i32 3
  %63 = load i32, ptr %62, align 8, !tbaa !45
  %64 = getelementptr inbounds nuw %"class.mu::ParserCallback", ptr %5, i32 0, i32 3
  store i32 %63, ptr %64, align 8, !tbaa !45
  br label %65

65:                                               ; preds = %38, %8
  ret void
}

; Function Attrs: mustprogress nounwind uwtable
define void @_ZN2mu14ParserCallbackC2Ev(ptr noundef nonnull align 8 dereferenceable(32) %0) unnamed_addr #5 align 2 {
  %2 = alloca ptr, align 8
  store ptr %0, ptr %2, align 8, !tbaa !32
  %3 = load ptr, ptr %2, align 8
  %4 = getelementptr inbounds nuw %"class.mu::ParserCallback", ptr %3, i32 0, i32 0
  store ptr null, ptr %4, align 8, !tbaa !37
  %5 = getelementptr inbounds nuw %"class.mu::ParserCallback", ptr %3, i32 0, i32 1
  store i32 0, ptr %5, align 8, !tbaa !43
  %6 = getelementptr inbounds nuw %"class.mu::ParserCallback", ptr %3, i32 0, i32 2
  store i32 -1, ptr %6, align 4, !tbaa !44
  %7 = getelementptr inbounds nuw %"class.mu::ParserCallback", ptr %3, i32 0, i32 3
  store i32 2, ptr %7, align 8, !tbaa !45
  %8 = getelementptr inbounds nuw %"class.mu::ParserCallback", ptr %3, i32 0, i32 4
  store i32 34, ptr %8, align 4, !tbaa !46
  %9 = getelementptr inbounds nuw %"class.mu::ParserCallback", ptr %3, i32 0, i32 5
  store i32 2, ptr %9, align 8, !tbaa !47
  %10 = getelementptr inbounds nuw %"class.mu::ParserCallback", ptr %3, i32 0, i32 6
  store i8 0, ptr %10, align 4, !tbaa !50
  ret void
}

; Function Attrs: mustprogress uwtable
define void @_ZN2mu14ParserCallbackC2ERKS0_(ptr noundef nonnull align 8 dereferenceable(32) %0, ptr noundef nonnull align 8 dereferenceable(32) %1) unnamed_addr #6 align 2 personality ptr @__gxx_personality_v0 {
  %3 = alloca ptr, align 8
  %4 = alloca ptr, align 8
  %5 = alloca ptr, align 8
  %6 = alloca i32, align 4
  store ptr %0, ptr %3, align 8, !tbaa !32
  store ptr %1, ptr %4, align 8, !tbaa !32
  %7 = load ptr, ptr %3, align 8
  call void @_ZN2mu14ParserCallbackC2Ev(ptr noundef nonnull align 8 dereferenceable(32) %7)
  %8 = load ptr, ptr %4, align 8, !tbaa !32
  invoke void @_ZN2mu14ParserCallback6AssignERKS0_(ptr noundef nonnull align 8 dereferenceable(32) %7, ptr noundef nonnull align 8 dereferenceable(32) %8)
          to label %9 unwind label %10

9:                                                ; preds = %2
  ret void

10:                                               ; preds = %2
  %11 = landingpad { ptr, i32 }
          cleanup
  %12 = extractvalue { ptr, i32 } %11, 0
  store ptr %12, ptr %5, align 8
  %13 = extractvalue { ptr, i32 } %11, 1
  store i32 %13, ptr %6, align 4
  call void @_ZN2mu14ParserCallbackD2Ev(ptr noundef nonnull align 8 dereferenceable(32) %7) #3
  br label %14

14:                                               ; preds = %10
  %15 = load ptr, ptr %5, align 8
  %16 = load i32, ptr %6, align 4
  %17 = insertvalue { ptr, i32 } poison, ptr %15, 0
  %18 = insertvalue { ptr, i32 } %17, i32 %16, 1
  resume { ptr, i32 } %18
}