; Function Attrs: mustprogress uwtable
define void @_ZN2mu14ParserCallbackC2ERKS0_(ptr noundef nonnull writeonly align 8 dereferenceable(32) initializes((0, 29)) %0, ptr noundef nonnull readonly align 8 dereferenceable(32) %1) unnamed_addr #7 align 2 personality ptr @__gxx_personality_v0 {
  store ptr null, ptr %0, align 8, !tbaa !4
  %3 = getelementptr inbounds nuw i8, ptr %0, i64 8
  store i32 0, ptr %3, align 8, !tbaa !14
  %4 = getelementptr inbounds nuw i8, ptr %0, i64 12
  store i32 -1, ptr %4, align 4, !tbaa !15
  %5 = getelementptr inbounds nuw i8, ptr %0, i64 16
  store i32 2, ptr %5, align 8, !tbaa !16
  %6 = getelementptr inbounds nuw i8, ptr %0, i64 20
  store i32 34, ptr %6, align 4, !tbaa !17
  %7 = getelementptr inbounds nuw i8, ptr %0, i64 24
  store i32 2, ptr %7, align 8, !tbaa !18
  %8 = getelementptr inbounds nuw i8, ptr %0, i64 28
  store i8 0, ptr %8, align 4, !tbaa !19
  %9 = icmp eq ptr %0, %1
  br i1 %9, label %_ZN2mu14ParserCallback6AssignERKS0_.exit, label %10

10:                                               ; preds = %2
  %11 = getelementptr inbounds nuw i8, ptr %1, i64 8
  %12 = load i32, ptr %11, align 8, !tbaa !14
  %13 = and i32 %12, 8192
  %.not13.i = icmp eq i32 %13, 0
  br i1 %.not13.i, label %16, label %.noexc

.noexc:                                           ; preds = %10
  %14 = tail call noalias noundef nonnull dereferenceable(16) ptr @_Znwm(i64 noundef 16) #12
  %15 = load ptr, ptr %1, align 8, !tbaa !4
  tail call void @llvm.memcpy.p0.p0.i64(ptr noundef nonnull align 16 dereferenceable(16) %14, ptr noundef nonnull align 8 dereferenceable(16) %15, i64 16, i1 false), !tbaa.struct !23
  br label %18

16:                                               ; preds = %10
  %17 = load ptr, ptr %1, align 8, !tbaa !4
  br label %18

18:                                               ; preds = %16, %.noexc
  %storemerge.i = phi ptr [ %17, %16 ], [ %14, %.noexc ]
  store ptr %storemerge.i, ptr %0, align 8, !tbaa !4
  store i32 %12, ptr %3, align 8, !tbaa !14
  %19 = getelementptr inbounds nuw i8, ptr %1, i64 28
  %20 = load i8, ptr %19, align 4, !tbaa !19, !range !25, !noundef !26
  store i8 %20, ptr %8, align 4, !tbaa !19
  %21 = getelementptr inbounds nuw i8, ptr %1, i64 20
  %22 = load i32, ptr %21, align 4, !tbaa !17
  store i32 %22, ptr %6, align 4, !tbaa !17
  %23 = getelementptr inbounds nuw i8, ptr %1, i64 24
  %24 = load i32, ptr %23, align 8, !tbaa !18
  store i32 %24, ptr %7, align 8, !tbaa !18
  %25 = getelementptr inbounds nuw i8, ptr %1, i64 12
  %26 = load i32, ptr %25, align 4, !tbaa !15
  store i32 %26, ptr %4, align 4, !tbaa !15
  %27 = getelementptr inbounds nuw i8, ptr %1, i64 16
  %28 = load i32, ptr %27, align 8, !tbaa !16
  store i32 %28, ptr %5, align 8, !tbaa !16
  br label %_ZN2mu14ParserCallback6AssignERKS0_.exit

_ZN2mu14ParserCallback6AssignERKS0_.exit:         ; preds = %18, %2
  ret void
}